target datalayout = "e-m:e-p270:32:32-p271:32:32-p272:64:64-i64:64-i128:128-f80:128-n8:16:32:64-S128"
target triple = "x86_64-pc-linux-gnu"

@.str.1 = private unnamed_addr constant [4 x i8] c"rc4\00", align 1
@.str.2 = private unnamed_addr constant [8 x i8] c"des-cbc\00", align 1
@.str.3 = private unnamed_addr constant [13 x i8] c"des-ede3-cbc\00", align 1
@.str.4 = private unnamed_addr constant [5 x i8] c"3des\00", align 1
@.str.5 = private unnamed_addr constant [12 x i8] c"aes-128-cbc\00", align 1
@.str.6 = private unnamed_addr constant [12 x i8] c"aes-256-cbc\00", align 1
@.str.7 = private unnamed_addr constant [12 x i8] c"aes-128-ctr\00", align 1
@.str.8 = private unnamed_addr constant [12 x i8] c"aes-256-ctr\00", align 1
@.str.9 = private unnamed_addr constant [12 x i8] c"aes-128-ecb\00", align 1
@.str.10 = private unnamed_addr constant [12 x i8] c"aes-256-ecb\00", align 1

; Function Attrs: nounwind uwtable
define hidden ptr @EVP_get_cipherbyname(ptr noundef %0) #0 {
  %2 = alloca ptr, align 8
  %3 = alloca ptr, align 8
  store ptr %0, ptr %3, align 8, !tbaa !25
  %4 = load ptr, ptr %3, align 8, !tbaa !25
  %5 = call i32 @OPENSSL_strcasecmp(ptr noundef %4, ptr noundef @.str.1)
  %6 = icmp eq i32 %5, 0
  br i1 %6, label %7, label %9

7:                                                ; preds = %1
  %8 = call ptr @EVP_rc4()
  store ptr %8, ptr %2, align 8
  br label %70

9:                                                ; preds = %1
  %10 = load ptr, ptr %3, align 8, !tbaa !25
  %11 = call i32 @OPENSSL_strcasecmp(ptr noundef %10, ptr noundef @.str.2)
  %12 = icmp eq i32 %11, 0
  br i1 %12, label %13, label %15

13:                                               ; preds = %9
  %14 = call ptr @EVP_des_cbc()
  store ptr %14, ptr %2, align 8
  br label %70

15:                                               ; preds = %9
  %16 = load ptr, ptr %3, align 8, !tbaa !25
  %17 = call i32 @OPENSSL_strcasecmp(ptr noundef %16, ptr noundef @.str.3)
  %18 = icmp eq i32 %17, 0
  br i1 %18, label %23, label %19

19:                                               ; preds = %15
  %20 = load ptr, ptr %3, align 8, !tbaa !25
  %21 = call i32 @OPENSSL_strcasecmp(ptr noundef %20, ptr noundef @.str.4)
  %22 = icmp eq i32 %21, 0
  br i1 %22, label %23, label %25

23:                                               ; preds = %19, %15
  %24 = call ptr @EVP_des_ede3_cbc()
  store ptr %24, ptr %2, align 8
  br label %70

25:                                               ; preds = %19
  %26 = load ptr, ptr %3, align 8, !tbaa !25
  %27 = call i32 @OPENSSL_strcasecmp(ptr noundef %26, ptr noundef @.str.5)
  %28 = icmp eq i32 %27, 0
  br i1 %28, label %29, label %31

29:                                               ; preds = %25
  %30 = call ptr @EVP_aes_128_cbc()
  store ptr %30, ptr %2, align 8
  br label %70

31:                                               ; preds = %25
  %32 = load ptr, ptr %3, align 8, !tbaa !25
  %33 = call i32 @OPENSSL_strcasecmp(ptr noundef %32, ptr noundef @.str.6)
  %34 = icmp eq i32 %33, 0
  br i1 %34, label %35, label %37

35:                                               ; preds = %31
  %36 = call ptr @EVP_aes_256_cbc()
  store ptr %36, ptr %2, align 8
  br label %70

37:                                               ; preds = %31
  %38 = load ptr, ptr %3, align 8, !tbaa !25
  %39 = call i32 @OPENSSL_strcasecmp(ptr noundef %38, ptr noundef @.str.7)
  %40 = icmp eq i32 %39, 0
  br i1 %40, label %41, label %43

41:                                               ; preds = %37
  %42 = call ptr @EVP_aes_128_ctr()
  store ptr %42, ptr %2, align 8
  br label %70

43:                                               ; preds = %37
  %44 = load ptr, ptr %3, align 8, !tbaa !25
  %45 = call i32 @OPENSSL_strcasecmp(ptr noundef %44, ptr noundef @.str.8)
  %46 = icmp eq i32 %45, 0
  br i1 %46, label %47, label %49

47:                                               ; preds = %43
  %48 = call ptr @EVP_aes_256_ctr()
  store ptr %48, ptr %2, align 8
  br label %70

49:                                               ; preds = %43
  %50 = load ptr, ptr %3, align 8, !tbaa !25
  %51 = call i32 @OPENSSL_strcasecmp(ptr noundef %50, ptr noundef @.str.9)
  %52 = icmp eq i32 %51, 0
  br i1 %52, label %53, label %55

53:                                               ; preds = %49
  %54 = call ptr @EVP_aes_128_ecb()
  store ptr %54, ptr %2, align 8
  br label %70

55:                                               ; preds = %49
  %56 = load ptr, ptr %3, align 8, !tbaa !25
  %57 = call i32 @OPENSSL_strcasecmp(ptr noundef %56, ptr noundef @.str.10)
  %58 = icmp eq i32 %57, 0
  br i1 %58, label %59, label %61

59:                                               ; preds = %55
  %60 = call ptr @EVP_aes_256_ecb()
  store ptr %60, ptr %2, align 8
  br label %70

61:                                               ; preds = %55
  br label %62

62:                                               ; preds = %61
  br label %63

63:                                               ; preds = %62
  br label %64

64:                                               ; preds = %63
  br label %65

65:                                               ; preds = %64
  br label %66

66:                                               ; preds = %65
  br label %67

67:                                               ; preds = %66
  br label %68

68:                                               ; preds = %67
  br label %69

69:                                               ; preds = %68
  store ptr null, ptr %2, align 8
  br label %70

70:                                               ; preds = %69, %59, %53, %47, %41, %35, %29, %23, %13, %7
  %71 = load ptr, ptr %2, align 8
  ret ptr %71
}