; Function Attrs: nounwind uwtable
define hidden ptr @EVP_get_cipherbyname(ptr noundef %0) local_unnamed_addr #0 {
  %2 = tail call i32 @OPENSSL_strcasecmp(ptr noundef %0, ptr noundef nonnull @.str.1) #14
  %3 = icmp eq i32 %2, 0
  br i1 %3, label %4, label %6

4:                                                ; preds = %1
  %5 = tail call ptr @EVP_rc4() #14
  br label %49

6:                                                ; preds = %1
  %7 = tail call i32 @OPENSSL_strcasecmp(ptr noundef %0, ptr noundef nonnull @.str.2) #14
  %8 = icmp eq i32 %7, 0
  br i1 %8, label %9, label %11

9:                                                ; preds = %6
  %10 = tail call ptr @EVP_des_cbc() #14
  br label %49

11:                                               ; preds = %6
  %12 = tail call i32 @OPENSSL_strcasecmp(ptr noundef %0, ptr noundef nonnull @.str.3) #14
  %13 = icmp eq i32 %12, 0
  br i1 %13, label %17, label %14

14:                                               ; preds = %11
  %15 = tail call i32 @OPENSSL_strcasecmp(ptr noundef %0, ptr noundef nonnull @.str.4) #14
  %16 = icmp eq i32 %15, 0
  br i1 %16, label %17, label %19

17:                                               ; preds = %14, %11
  %18 = tail call ptr @EVP_des_ede3_cbc() #14
  br label %49

19:                                               ; preds = %14
  %20 = tail call i32 @OPENSSL_strcasecmp(ptr noundef %0, ptr noundef nonnull @.str.5) #14
  %21 = icmp eq i32 %20, 0
  br i1 %21, label %22, label %24

22:                                               ; preds = %19
  %23 = tail call ptr @EVP_aes_128_cbc() #14
  br label %49

24:                                               ; preds = %19
  %25 = tail call i32 @OPENSSL_strcasecmp(ptr noundef %0, ptr noundef nonnull @.str.6) #14
  %26 = icmp eq i32 %25, 0
  br i1 %26, label %27, label %29

27:                                               ; preds = %24
  %28 = tail call ptr @EVP_aes_256_cbc() #14
  br label %49

29:                                               ; preds = %24
  %30 = tail call i32 @OPENSSL_strcasecmp(ptr noundef %0, ptr noundef nonnull @.str.7) #14
  %31 = icmp eq i32 %30, 0
  br i1 %31, label %32, label %34

32:                                               ; preds = %29
  %33 = tail call ptr @EVP_aes_128_ctr() #14
  br label %49

34:                                               ; preds = %29
  %35 = tail call i32 @OPENSSL_strcasecmp(ptr noundef %0, ptr noundef nonnull @.str.8) #14
  %36 = icmp eq i32 %35, 0
  br i1 %36, label %37, label %39

37:                                               ; preds = %34
  %38 = tail call ptr @EVP_aes_256_ctr() #14
  br label %49

39:                                               ; preds = %34
  %40 = tail call i32 @OPENSSL_strcasecmp(ptr noundef %0, ptr noundef nonnull @.str.9) #14
  %41 = icmp eq i32 %40, 0
  br i1 %41, label %42, label %44

42:                                               ; preds = %39
  %43 = tail call ptr @EVP_aes_128_ecb() #14
  br label %49

44:                                               ; preds = %39
  %45 = tail call i32 @OPENSSL_strcasecmp(ptr noundef %0, ptr noundef nonnull @.str.10) #14
  %46 = icmp eq i32 %45, 0
  br i1 %46, label %47, label %49

47:                                               ; preds = %44
  %48 = tail call ptr @EVP_aes_256_ecb() #14
  br label %49

49:                                               ; preds = %44, %47, %42, %37, %32, %27, %22, %17, %9, %4
  %.0 = phi ptr [ %5, %4 ], [ %10, %9 ], [ %18, %17 ], [ %23, %22 ], [ %28, %27 ], [ %33, %32 ], [ %38, %37 ], [ %43, %42 ], [ %48, %47 ], [ null, %44 ]
  ret ptr %.0
}